target datalayout = "e-m:e-p270:32:32-p271:32:32-p272:64:64-i64:64-i128:128-f80:128-n8:16:32:64-S128"
target triple = "x86_64-pc-linux-gnu"

%struct.H5F_super_t = type { %struct.H5C_cache_entry_t, i32, i8, i8, i8, i32, [2 x i32], i64, i64, i64, i64, ptr }
%struct.H5C_cache_entry_t = type { ptr, i64, i64, ptr, i8, ptr, i8, i8, i8, i8, i32, i8, i8, i8, i8, i8, i32, ptr, i32, i32, i32, i32, i32, i8, i8, ptr, ptr, ptr, ptr, ptr, ptr, i8, i32, i8, i64, ptr, i64, i64, i32, i8, i32, i32, i8, ptr, ptr, ptr }
%struct.H5F_superblock_cache_ud_t = type { ptr, i8, i32, [2 x i32], i64, i8, i32 }

@H5F_init_g = external global i8, align 1
@H5_libterm_g = external global i8, align 1
@.str.2 = private unnamed_addr constant [108 x i8] c"generated/home/dtcxzyw/WorkSpace/Projects/compilers/llvm-opt-benchmark/bench/hdf5/hdf5/src/H5Fsuper_cache.c\00", align 1
@__func__.H5F__cache_superblock_get_final_load_size = private unnamed_addr constant [42 x i8] c"H5F__cache_superblock_get_final_load_size\00", align 1
@H5E_FILE_g = external global i64, align 8
@H5E_CANTDECODE_g = external global i64, align 8
@.str.3 = private unnamed_addr constant [36 x i8] c"can't decode file superblock prefix\00", align 1

; Function Attrs: nounwind uwtable
define internal i32 @H5F__cache_superblock_get_final_load_size(ptr noundef %0, i64 noundef %1, ptr noundef %2, ptr noundef %3) #0 {
  %5 = alloca ptr, align 8
  %6 = alloca i64, align 8
  %7 = alloca ptr, align 8
  %8 = alloca ptr, align 8
  %9 = alloca ptr, align 8
  %10 = alloca ptr, align 8
  %11 = alloca %struct.H5F_super_t, align 8
  %12 = alloca i32, align 4
  %13 = alloca i8, align 1
  store ptr %0, ptr %5, align 8, !tbaa !3
  store i64 %1, ptr %6, align 8, !tbaa !13
  store ptr %2, ptr %7, align 8, !tbaa !3
  store ptr %3, ptr %8, align 8, !tbaa !7
  call void @llvm.lifetime.start.p0(i64 8, ptr %9) #6
  %14 = load ptr, ptr %5, align 8, !tbaa !3
  store ptr %14, ptr %9, align 8, !tbaa !15
  call void @llvm.lifetime.start.p0(i64 8, ptr %10) #6
  %15 = load ptr, ptr %7, align 8, !tbaa !3
  store ptr %15, ptr %10, align 8, !tbaa !17
  call void @llvm.lifetime.start.p0(i64 312, ptr %11) #6
  call void @llvm.lifetime.start.p0(i64 4, ptr %12) #6
  store i32 0, ptr %12, align 4, !tbaa !19
  call void @llvm.lifetime.start.p0(i64 1, ptr %13) #6
  store i8 0, ptr %13, align 1, !tbaa !9
  %16 = load i8, ptr @H5F_init_g, align 1, !tbaa !9, !range !11, !noundef !12
  %17 = trunc i8 %16 to i1
  br i1 %17, label %22, label %18

18:                                               ; preds = %4
  %19 = load i8, ptr @H5_libterm_g, align 1, !tbaa !9, !range !11, !noundef !12
  %20 = trunc i8 %19 to i1
  %21 = xor i1 %20, true
  br label %22

22:                                               ; preds = %18, %4
  %23 = phi i1 [ true, %4 ], [ %21, %18 ]
  %24 = xor i1 %23, true
  %25 = xor i1 %24, true
  %26 = zext i1 %25 to i32
  %27 = sext i32 %26 to i64
  %28 = call i64 @llvm.expect.i64(i64 %27, i64 1)
  %29 = icmp ne i64 %28, 0
  br i1 %29, label %30, label %157

30:                                               ; preds = %22
  %31 = load i64, ptr %6, align 8, !tbaa !13
  %32 = load ptr, ptr %10, align 8, !tbaa !17
  %33 = call i32 @H5F__superblock_prefix_decode(ptr noundef %11, ptr noundef %9, i64 noundef %31, ptr noundef %32, i1 noundef zeroext true)
  %34 = icmp slt i32 %33, 0
  br i1 %34, label %35, label %54

35:                                               ; preds = %30
  br label %36

36:                                               ; preds = %35
  br label %37

37:                                               ; preds = %36
  br label %38

38:                                               ; preds = %37
  %39 = load i64, ptr @H5E_FILE_g, align 8, !tbaa !13
  %40 = load i64, ptr @H5E_CANTDECODE_g, align 8, !tbaa !13
  %41 = call i32 (ptr, ptr, i32, i64, i64, ptr, ...) @H5E_printf_stack(ptr noundef @.str.2, ptr noundef @__func__.H5F__cache_superblock_get_final_load_size, i32 noundef 341, i64 noundef %39, i64 noundef %40, ptr noundef @.str.3)
  br label %42

42:                                               ; preds = %38
  br label %43

43:                                               ; preds = %42
  store i8 1, ptr %13, align 1, !tbaa !9
  %44 = load i8, ptr %13, align 1, !tbaa !9, !range !11, !noundef !12
  %45 = trunc i8 %44 to i1
  %46 = zext i1 %45 to i8
  store i8 %46, ptr %13, align 1, !tbaa !9
  br label %47

47:                                               ; preds = %43
  br label %48

48:                                               ; preds = %47
  br label %49

49:                                               ; preds = %48
  store i32 -1, ptr %12, align 4, !tbaa !19
  br label %156

50:                                               ; No predecessors!
  br label %51

51:                                               ; preds = %50
  br label %52

52:                                               ; preds = %51
  br label %53

53:                                               ; preds = %52
  br label %54

54:                                               ; preds = %53, %30
  %55 = getelementptr inbounds nuw %struct.H5F_super_t, ptr %11, i32 0, i32 1
  %56 = load i32, ptr %55, align 8, !tbaa !21
  %57 = load ptr, ptr %10, align 8, !tbaa !17
  %58 = getelementptr inbounds nuw %struct.H5F_superblock_cache_ud_t, ptr %57, i32 0, i32 6
  store i32 %56, ptr %58, align 4, !tbaa !30
  %59 = getelementptr inbounds nuw %struct.H5F_super_t, ptr %11, i32 0, i32 1
  %60 = load i32, ptr %59, align 8, !tbaa !21
  %61 = icmp eq i32 %60, 0
  br i1 %61, label %62, label %90

62:                                               ; preds = %54
  %63 = getelementptr inbounds nuw %struct.H5F_super_t, ptr %11, i32 0, i32 2
  %64 = load i8, ptr %63, align 4, !tbaa !33
  %65 = zext i8 %64 to i32
  %66 = add nsw i32 15, %65
  %67 = getelementptr inbounds nuw %struct.H5F_super_t, ptr %11, i32 0, i32 2
  %68 = load i8, ptr %67, align 4, !tbaa !33
  %69 = zext i8 %68 to i32
  %70 = add nsw i32 %66, %69
  %71 = getelementptr inbounds nuw %struct.H5F_super_t, ptr %11, i32 0, i32 2
  %72 = load i8, ptr %71, align 4, !tbaa !33
  %73 = zext i8 %72 to i32
  %74 = add nsw i32 %70, %73
  %75 = getelementptr inbounds nuw %struct.H5F_super_t, ptr %11, i32 0, i32 2
  %76 = load i8, ptr %75, align 4, !tbaa !33
  %77 = zext i8 %76 to i32
  %78 = add nsw i32 %74, %77
  %79 = getelementptr inbounds nuw %struct.H5F_super_t, ptr %11, i32 0, i32 3
  %80 = load i8, ptr %79, align 1, !tbaa !34
  %81 = zext i8 %80 to i32
  %82 = getelementptr inbounds nuw %struct.H5F_super_t, ptr %11, i32 0, i32 2
  %83 = load i8, ptr %82, align 4, !tbaa !33
  %84 = zext i8 %83 to i32
  %85 = add nsw i32 %81, %84
  %86 = add nsw i32 %85, 4
  %87 = add nsw i32 %86, 4
  %88 = add nsw i32 %87, 16
  %89 = add nsw i32 %78, %88
  br label %91

90:                                               ; preds = %54
  br label %91

91:                                               ; preds = %90, %62
  %92 = phi i32 [ %89, %62 ], [ 0, %90 ]
  %93 = getelementptr inbounds nuw %struct.H5F_super_t, ptr %11, i32 0, i32 1
  %94 = load i32, ptr %93, align 8, !tbaa !21
  %95 = icmp eq i32 %94, 1
  br i1 %95, label %96, label %124

96:                                               ; preds = %91
  %97 = getelementptr inbounds nuw %struct.H5F_super_t, ptr %11, i32 0, i32 2
  %98 = load i8, ptr %97, align 4, !tbaa !33
  %99 = zext i8 %98 to i32
  %100 = add nsw i32 19, %99
  %101 = getelementptr inbounds nuw %struct.H5F_super_t, ptr %11, i32 0, i32 2
  %102 = load i8, ptr %101, align 4, !tbaa !33
  %103 = zext i8 %102 to i32
  %104 = add nsw i32 %100, %103
  %105 = getelementptr inbounds nuw %struct.H5F_super_t, ptr %11, i32 0, i32 2
  %106 = load i8, ptr %105, align 4, !tbaa !33
  %107 = zext i8 %106 to i32
  %108 = add nsw i32 %104, %107
  %109 = getelementptr inbounds nuw %struct.H5F_super_t, ptr %11, i32 0, i32 2
  %110 = load i8, ptr %109, align 4, !tbaa !33
  %111 = zext i8 %110 to i32
  %112 = add nsw i32 %108, %111
  %113 = getelementptr inbounds nuw %struct.H5F_super_t, ptr %11, i32 0, i32 3
  %114 = load i8, ptr %113, align 1, !tbaa !34
  %115 = zext i8 %114 to i32
  %116 = getelementptr inbounds nuw %struct.H5F_super_t, ptr %11, i32 0, i32 2
  %117 = load i8, ptr %116, align 4, !tbaa !33
  %118 = zext i8 %117 to i32
  %119 = add nsw i32 %115, %118
  %120 = add nsw i32 %119, 4
  %121 = add nsw i32 %120, 4
  %122 = add nsw i32 %121, 16
  %123 = add nsw i32 %112, %122
  br label %125

124:                                              ; preds = %91
  br label %125

125:                                              ; preds = %124, %96
  %126 = phi i32 [ %123, %96 ], [ 0, %124 ]
  %127 = add nsw i32 %92, %126
  %128 = getelementptr inbounds nuw %struct.H5F_super_t, ptr %11, i32 0, i32 1
  %129 = load i32, ptr %128, align 8, !tbaa !21
  %130 = icmp uge i32 %129, 2
  br i1 %130, label %131, label %149

131:                                              ; preds = %125
  %132 = getelementptr inbounds nuw %struct.H5F_super_t, ptr %11, i32 0, i32 2
  %133 = load i8, ptr %132, align 4, !tbaa !33
  %134 = zext i8 %133 to i32
  %135 = add nsw i32 3, %134
  %136 = getelementptr inbounds nuw %struct.H5F_super_t, ptr %11, i32 0, i32 2
  %137 = load i8, ptr %136, align 4, !tbaa !33
  %138 = zext i8 %137 to i32
  %139 = add nsw i32 %135, %138
  %140 = getelementptr inbounds nuw %struct.H5F_super_t, ptr %11, i32 0, i32 2
  %141 = load i8, ptr %140, align 4, !tbaa !33
  %142 = zext i8 %141 to i32
  %143 = add nsw i32 %139, %142
  %144 = getelementptr inbounds nuw %struct.H5F_super_t, ptr %11, i32 0, i32 2
  %145 = load i8, ptr %144, align 4, !tbaa !33
  %146 = zext i8 %145 to i32
  %147 = add nsw i32 %143, %146
  %148 = add nsw i32 %147, 4
  br label %150

149:                                              ; preds = %125
  br label %150

150:                                              ; preds = %149, %131
  %151 = phi i32 [ %148, %131 ], [ 0, %149 ]
  %152 = add nsw i32 %127, %151
  %153 = sext i32 %152 to i64
  %154 = add i64 9, %153
  %155 = load ptr, ptr %8, align 8, !tbaa !7
  store i64 %154, ptr %155, align 8, !tbaa !13
  br label %156

156:                                              ; preds = %150, %49
  br label %157

157:                                              ; preds = %156, %22
  %158 = load i32, ptr %12, align 4, !tbaa !19
  call void @llvm.lifetime.end.p0(i64 1, ptr %13) #6
  call void @llvm.lifetime.end.p0(i64 4, ptr %12) #6
  call void @llvm.lifetime.end.p0(i64 312, ptr %11) #6
  call void @llvm.lifetime.end.p0(i64 8, ptr %10) #6
  call void @llvm.lifetime.end.p0(i64 8, ptr %9) #6
  ret i32 %158
}