; Function Attrs: nounwind uwtable
define internal range(i32 -1, 1) i32 @H5F__cache_superblock_get_final_load_size(ptr noundef %0, i64 noundef %1, ptr noundef captures(none) %2, ptr noundef writeonly captures(none) %3) #1 {
  %5 = alloca ptr, align 8
  %6 = alloca %struct.H5F_super_t, align 8
  call void @llvm.lifetime.start.p0(i64 8, ptr nonnull %5) #6
  store ptr %0, ptr %5, align 8, !tbaa !12
  call void @llvm.lifetime.start.p0(i64 312, ptr nonnull %6) #6
  %7 = load i8, ptr @H5F_init_g, align 1, !tbaa !3, !range !7, !noundef !8
  %8 = trunc nuw i8 %7 to i1
  %9 = load i8, ptr @H5_libterm_g, align 1, !range !7
  %10 = trunc nuw i8 %9 to i1
  %11 = xor i1 %10, true
  %12 = select i1 %8, i1 true, i1 %11
  br i1 %12, label %13, label %44, !prof !9

13:                                               ; preds = %4
  %14 = call fastcc i32 @H5F__superblock_prefix_decode(ptr noundef %6, ptr noundef %5, i64 noundef %1, ptr noundef %2, i1 noundef zeroext true)
  %15 = icmp slt i32 %14, 0
  br i1 %15, label %16, label %20

16:                                               ; preds = %13
  %17 = load i64, ptr @H5E_FILE_g, align 8, !tbaa !10
  %18 = load i64, ptr @H5E_CANTDECODE_g, align 8, !tbaa !10
  %19 = tail call i32 (ptr, ptr, i32, i64, i64, ptr, ...) @H5E_printf_stack(ptr noundef nonnull @.str.2, ptr noundef nonnull @__func__.H5F__cache_superblock_get_final_load_size, i32 noundef 341, i64 noundef %17, i64 noundef %18, ptr noundef nonnull @.str.3) #6
  br label %44

20:                                               ; preds = %13
  %21 = getelementptr inbounds nuw i8, ptr %6, i64 248
  %22 = load i32, ptr %21, align 8, !tbaa !15
  %23 = getelementptr inbounds nuw i8, ptr %2, i64 36
  store i32 %22, ptr %23, align 4, !tbaa !26
  %.phi.trans.insert = getelementptr inbounds nuw i8, ptr %6, i64 252
  %.pre = load i8, ptr %.phi.trans.insert, align 4
  %.pre10 = zext i8 %.pre to i32
  %.pre11 = shl nuw nsw i32 %.pre10, 2
  switch i32 %22, label %._crit_edge [
    i32 0, label %.thread
    i32 1, label %30
  ]

.thread:                                          ; preds = %20
  %24 = getelementptr inbounds nuw i8, ptr %6, i64 253
  %25 = load i8, ptr %24, align 1, !tbaa !29
  %26 = zext i8 %25 to i32
  %27 = add nuw nsw i32 %.pre10, 39
  %28 = add nuw nsw i32 %27, %26
  %29 = add nuw nsw i32 %28, %.pre11
  br label %._crit_edge

30:                                               ; preds = %20
  %31 = getelementptr inbounds nuw i8, ptr %6, i64 253
  %32 = load i8, ptr %31, align 1, !tbaa !29
  %33 = zext i8 %32 to i32
  %34 = add nuw nsw i32 %.pre10, 43
  %35 = add nuw nsw i32 %34, %33
  %36 = add nuw nsw i32 %35, %.pre11
  br label %._crit_edge

._crit_edge:                                      ; preds = %20, %.thread, %30
  %37 = phi i32 [ %29, %.thread ], [ %36, %30 ], [ 0, %20 ]
  %38 = icmp ugt i32 %22, 1
  %39 = add nuw nsw i32 %.pre11, 7
  %40 = select i1 %38, i32 %39, i32 0
  %41 = add nuw nsw i32 %40, %37
  %42 = zext nneg i32 %41 to i64
  %43 = add nuw nsw i64 %42, 9
  store i64 %43, ptr %3, align 8, !tbaa !10
  br label %44

44:                                               ; preds = %16, %._crit_edge, %4
  %.0 = phi i32 [ -1, %16 ], [ 0, %._crit_edge ], [ 0, %4 ]
  call void @llvm.lifetime.end.p0(i64 312, ptr nonnull %6) #6
  call void @llvm.lifetime.end.p0(i64 8, ptr nonnull %5) #6
  ret i32 %.0
}